target datalayout = "e-m:e-p270:32:32-p271:32:32-p272:64:64-i64:64-i128:128-f80:128-n8:16:32:64-S128"
target triple = "x86_64-pc-linux-gnu"

%struct.PLpgSQL_execstate = type { ptr, ptr, ptr, i64, i8, i32, i32, i8, i8, i8, i8, ptr, ptr, ptr, ptr, ptr, ptr, ptr, i32, i32, ptr, ptr, ptr, ptr, ptr, ptr, ptr, ptr, ptr, ptr, i64, ptr, ptr, ptr, ptr, ptr }
%struct.ExprContext = type { i32, ptr, ptr, ptr, ptr, ptr, ptr, ptr, ptr, ptr, i64, i8, i64, i8, ptr, ptr, ptr, ptr }
%struct.List = type { i32, i32, i32, ptr, [0 x %union.ListCell] }
%union.ListCell = type { ptr }
%struct.PLpgSQL_expr = type { ptr, i32, ptr, ptr, i32, i8, ptr, ptr, ptr, i32, i32, i8, i32, ptr, ptr, ptr, i32, ptr, i8, i32 }
%struct.SPIPrepareOptions = type { ptr, ptr, i32, i32 }
%struct.PGPROC = type { %struct.dlist_node, ptr, ptr, i32, %struct.Latch, i32, i32, i32, i32, %struct.anon, i32, i32, i32, i8, i8, i8, i8, %struct.proclist_node, %struct.proclist_node, ptr, ptr, i32, i32, %struct.pg_atomic_uint64, i32, i8, i64, i32, %struct.dlist_node, [16 x %struct.dlist_head], %struct.XidCacheStatus, %struct.XidCache, i8, %struct.pg_atomic_uint32, i32, i32, i8, %struct.pg_atomic_uint32, i32, i32, i64, i64, %struct.LWLock, ptr, ptr, i8, i32, ptr, %struct.dlist_head, %struct.dlist_node }
%struct.Latch = type { i32, i32, i8, i32 }
%struct.anon = type { i32, i32 }
%struct.proclist_node = type { i32, i32 }
%struct.pg_atomic_uint64 = type { i64 }
%struct.XidCacheStatus = type { i8, i8 }
%struct.XidCache = type { [64 x i32] }
%struct.pg_atomic_uint32 = type { i32 }
%struct.LWLock = type { i16, %struct.pg_atomic_uint32, %struct.proclist_head }
%struct.proclist_head = type { i32, i32 }
%struct.dlist_head = type { %struct.dlist_node }
%struct.dlist_node = type { ptr, ptr }

@.str.2 = private unnamed_addr constant [11 x i8] c"plpgsql-18\00", align 1
@.str.4 = private unnamed_addr constant [10 x i8] c"pl_exec.c\00", align 1
@CurrentMemoryContext = external global ptr, align 8
@CurrentResourceOwner = external global ptr, align 8
@.str.31 = private unnamed_addr constant [41 x i8] c"SPI_prepare_extended failed for \22%s\22: %s\00", align 1
@SPI_result = external global i32, align 4
@__func__.exec_prepare_plan = private unnamed_addr constant [18 x i8] c"exec_prepare_plan\00", align 1
@MyProc = external global ptr, align 8

; Function Attrs: inlinehint nounwind uwtable
define internal ptr @MemoryContextSwitchTo(ptr noundef %0) #2 {
  %2 = alloca ptr, align 8
  %3 = alloca ptr, align 8
  store ptr %0, ptr %2, align 8
  call void @llvm.lifetime.start.p0(i64 8, ptr %3) #12
  %4 = load ptr, ptr @CurrentMemoryContext, align 8
  store ptr %4, ptr %3, align 8
  %5 = load ptr, ptr %2, align 8
  store ptr %5, ptr @CurrentMemoryContext, align 8
  %6 = load ptr, ptr %3, align 8
  call void @llvm.lifetime.end.p0(i64 8, ptr %3) #12
  ret ptr %6
}

; Function Attrs: inlinehint nounwind uwtable
define internal ptr @list_nth_cell(ptr noundef %0, i32 noundef %1) #2 {
  %3 = alloca ptr, align 8
  %4 = alloca i32, align 4
  store ptr %0, ptr %3, align 8
  store i32 %1, ptr %4, align 4
  %5 = load ptr, ptr %3, align 8
  %6 = getelementptr inbounds nuw %struct.List, ptr %5, i32 0, i32 3
  %7 = load ptr, ptr %6, align 8
  %8 = load i32, ptr %4, align 4
  %9 = sext i32 %8 to i64
  %10 = getelementptr inbounds %union.ListCell, ptr %7, i64 %9
  ret ptr %10
}

; Function Attrs: nounwind uwtable
define internal void @exec_simple_check_plan(ptr noundef %0, ptr noundef %1) #0 {
  %3 = alloca ptr, align 8
  %4 = alloca ptr, align 8
  %5 = alloca ptr, align 8
  %6 = alloca ptr, align 8
  %7 = alloca ptr, align 8
  %8 = alloca ptr, align 8
  %9 = alloca i32, align 4
  store ptr %0, ptr %3, align 8
  store ptr %1, ptr %4, align 8
  call void @llvm.lifetime.start.p0(i64 8, ptr %5) #12
  call void @llvm.lifetime.start.p0(i64 8, ptr %6) #12
  call void @llvm.lifetime.start.p0(i64 8, ptr %7) #12
  call void @llvm.lifetime.start.p0(i64 8, ptr %8) #12
  %10 = load ptr, ptr %4, align 8
  %11 = getelementptr inbounds nuw %struct.PLpgSQL_expr, ptr %10, i32 0, i32 8
  store ptr null, ptr %11, align 8
  %12 = load ptr, ptr %4, align 8
  %13 = getelementptr inbounds nuw %struct.PLpgSQL_expr, ptr %12, i32 0, i32 12
  store i32 0, ptr %13, align 4
  %14 = load ptr, ptr %4, align 8
  %15 = getelementptr inbounds nuw %struct.PLpgSQL_expr, ptr %14, i32 0, i32 13
  store ptr null, ptr %15, align 8
  %16 = load ptr, ptr %4, align 8
  %17 = call zeroext i1 @exec_is_simple_query(ptr noundef %16)
  br i1 %17, label %19, label %18

18:                                               ; preds = %2
  store i32 1, ptr %9, align 4
  br label %63

19:                                               ; preds = %2
  %20 = load ptr, ptr %4, align 8
  %21 = getelementptr inbounds nuw %struct.PLpgSQL_expr, ptr %20, i32 0, i32 6
  %22 = load ptr, ptr %21, align 8
  %23 = call ptr @SPI_plan_get_plan_sources(ptr noundef %22)
  store ptr %23, ptr %5, align 8
  %24 = load ptr, ptr %5, align 8
  %25 = call ptr @list_nth_cell(ptr noundef %24, i32 noundef 0)
  %26 = load ptr, ptr %25, align 8
  store ptr %26, ptr %6, align 8
  %27 = load ptr, ptr %3, align 8
  %28 = getelementptr inbounds nuw %struct.PLpgSQL_execstate, ptr %27, i32 0, i32 31
  %29 = load ptr, ptr %28, align 8
  %30 = getelementptr inbounds nuw %struct.ExprContext, ptr %29, i32 0, i32 5
  %31 = load ptr, ptr %30, align 8
  %32 = call ptr @MemoryContextSwitchTo(ptr noundef %31)
  store ptr %32, ptr %8, align 8
  %33 = load ptr, ptr %4, align 8
  %34 = getelementptr inbounds nuw %struct.PLpgSQL_expr, ptr %33, i32 0, i32 6
  %35 = load ptr, ptr %34, align 8
  %36 = call ptr @SPI_plan_get_cached_plan(ptr noundef %35)
  store ptr %36, ptr %7, align 8
  %37 = load ptr, ptr %8, align 8
  %38 = call ptr @MemoryContextSwitchTo(ptr noundef %37)
  %39 = load ptr, ptr %6, align 8
  %40 = load ptr, ptr %7, align 8
  %41 = load ptr, ptr %3, align 8
  %42 = getelementptr inbounds nuw %struct.PLpgSQL_execstate, ptr %41, i32 0, i32 24
  %43 = load ptr, ptr %42, align 8
  %44 = call zeroext i1 @CachedPlanAllowsSimpleValidityCheck(ptr noundef %39, ptr noundef %40, ptr noundef %43)
  br i1 %44, label %45, label %60

45:                                               ; preds = %19
  %46 = load ptr, ptr %6, align 8
  %47 = load ptr, ptr %4, align 8
  %48 = getelementptr inbounds nuw %struct.PLpgSQL_expr, ptr %47, i32 0, i32 14
  store ptr %46, ptr %48, align 8
  %49 = load ptr, ptr %7, align 8
  %50 = load ptr, ptr %4, align 8
  %51 = getelementptr inbounds nuw %struct.PLpgSQL_expr, ptr %50, i32 0, i32 15
  store ptr %49, ptr %51, align 8
  %52 = load ptr, ptr @MyProc, align 8
  %53 = getelementptr inbounds nuw %struct.PGPROC, ptr %52, i32 0, i32 9
  %54 = getelementptr inbounds nuw %struct.anon, ptr %53, i32 0, i32 1
  %55 = load i32, ptr %54, align 4
  %56 = load ptr, ptr %4, align 8
  %57 = getelementptr inbounds nuw %struct.PLpgSQL_expr, ptr %56, i32 0, i32 16
  store i32 %55, ptr %57, align 8
  %58 = load ptr, ptr %4, align 8
  %59 = load ptr, ptr %7, align 8
  call void @exec_save_simple_expr(ptr noundef %58, ptr noundef %59)
  br label %60

60:                                               ; preds = %45, %19
  %61 = load ptr, ptr %7, align 8
  %62 = load ptr, ptr @CurrentResourceOwner, align 8
  call void @ReleaseCachedPlan(ptr noundef %61, ptr noundef %62)
  store i32 0, ptr %9, align 4
  br label %63

63:                                               ; preds = %60, %18
  call void @llvm.lifetime.end.p0(i64 8, ptr %8) #12
  call void @llvm.lifetime.end.p0(i64 8, ptr %7) #12
  call void @llvm.lifetime.end.p0(i64 8, ptr %6) #12
  call void @llvm.lifetime.end.p0(i64 8, ptr %5) #12
  %64 = load i32, ptr %9, align 4
  switch i32 %64, label %66 [
    i32 0, label %65
    i32 1, label %65
  ]

65:                                               ; preds = %63, %63
  ret void

66:                                               ; preds = %63
  unreachable
}

; Function Attrs: nounwind uwtable
define internal void @exec_prepare_plan(ptr noundef %0, ptr noundef %1, i32 noundef %2) #0 {
  %4 = alloca ptr, align 8
  %5 = alloca ptr, align 8
  %6 = alloca i32, align 4
  %7 = alloca ptr, align 8
  %8 = alloca %struct.SPIPrepareOptions, align 8
  store ptr %0, ptr %4, align 8
  store ptr %1, ptr %5, align 8
  store i32 %2, ptr %6, align 4
  call void @llvm.lifetime.start.p0(i64 8, ptr %7) #12
  call void @llvm.lifetime.start.p0(i64 24, ptr %8) #12
  call void @llvm.memset.p0.i64(ptr align 8 %8, i8 0, i64 24, i1 false)
  %9 = getelementptr inbounds nuw %struct.SPIPrepareOptions, ptr %8, i32 0, i32 0
  store ptr @plpgsql_parser_setup, ptr %9, align 8
  %10 = load ptr, ptr %5, align 8
  %11 = getelementptr inbounds nuw %struct.SPIPrepareOptions, ptr %8, i32 0, i32 1
  store ptr %10, ptr %11, align 8
  %12 = load ptr, ptr %5, align 8
  %13 = getelementptr inbounds nuw %struct.PLpgSQL_expr, ptr %12, i32 0, i32 1
  %14 = load i32, ptr %13, align 8
  %15 = getelementptr inbounds nuw %struct.SPIPrepareOptions, ptr %8, i32 0, i32 2
  store i32 %14, ptr %15, align 8
  %16 = load i32, ptr %6, align 4
  %17 = getelementptr inbounds nuw %struct.SPIPrepareOptions, ptr %8, i32 0, i32 3
  store i32 %16, ptr %17, align 4
  %18 = load ptr, ptr %5, align 8
  %19 = getelementptr inbounds nuw %struct.PLpgSQL_expr, ptr %18, i32 0, i32 0
  %20 = load ptr, ptr %19, align 8
  %21 = call ptr @SPI_prepare_extended(ptr noundef %20, ptr noundef %8)
  store ptr %21, ptr %7, align 8
  %22 = load ptr, ptr %7, align 8
  %23 = icmp eq ptr %22, null
  br i1 %23, label %24, label %40

24:                                               ; preds = %3
  br label %25

25:                                               ; preds = %24
  br i1 true, label %26, label %28

26:                                               ; preds = %25
  %27 = call zeroext i1 @errstart_cold(i32 noundef 21, ptr noundef @.str.2) #13
  br i1 %27, label %30, label %37

28:                                               ; preds = %25
  %29 = call zeroext i1 @errstart(i32 noundef 21, ptr noundef @.str.2)
  br i1 %29, label %30, label %37

30:                                               ; preds = %28, %26
  %31 = load ptr, ptr %5, align 8
  %32 = getelementptr inbounds nuw %struct.PLpgSQL_expr, ptr %31, i32 0, i32 0
  %33 = load ptr, ptr %32, align 8
  %34 = load i32, ptr @SPI_result, align 4
  %35 = call ptr @SPI_result_code_string(i32 noundef %34)
  %36 = call i32 (ptr, ...) @errmsg_internal(ptr noundef @.str.31, ptr noundef %33, ptr noundef %35)
  call void @errfinish(ptr noundef @.str.4, i32 noundef 4204, ptr noundef @__func__.exec_prepare_plan)
  br label %37

37:                                               ; preds = %30, %28, %26
  unreachable

38:                                               ; No predecessors!
  br label %39

39:                                               ; preds = %38
  br label %40

40:                                               ; preds = %39, %3
  %41 = load ptr, ptr %7, align 8
  %42 = call i32 @SPI_keepplan(ptr noundef %41)
  %43 = load ptr, ptr %7, align 8
  %44 = load ptr, ptr %5, align 8
  %45 = getelementptr inbounds nuw %struct.PLpgSQL_expr, ptr %44, i32 0, i32 6
  store ptr %43, ptr %45, align 8
  %46 = load ptr, ptr %4, align 8
  %47 = load ptr, ptr %5, align 8
  call void @exec_simple_check_plan(ptr noundef %46, ptr noundef %47)
  call void @llvm.lifetime.end.p0(i64 24, ptr %8) #12
  call void @llvm.lifetime.end.p0(i64 8, ptr %7) #12
  ret void
}