; Function Attrs: nounwind uwtable
define internal fastcc void @exec_prepare_plan(ptr noundef readonly captures(none) %0, ptr noundef %1, i32 noundef %2) unnamed_addr #0 {
  %4 = alloca %struct.SPIPrepareOptions, align 8
  call void @llvm.lifetime.start.p0(i64 24, ptr nonnull %4) #12
  store ptr @plpgsql_parser_setup, ptr %4, align 8
  %5 = getelementptr inbounds nuw i8, ptr %4, i64 8
  store ptr %1, ptr %5, align 8
  %6 = getelementptr inbounds nuw i8, ptr %1, i64 8
  %7 = load i32, ptr %6, align 8
  %8 = getelementptr inbounds nuw i8, ptr %4, i64 16
  store i32 %7, ptr %8, align 8
  %9 = getelementptr inbounds nuw i8, ptr %4, i64 20
  store i32 %2, ptr %9, align 4
  %10 = load ptr, ptr %1, align 8
  %11 = call ptr @SPI_prepare_extended(ptr noundef %10, ptr noundef nonnull %4) #12
  %12 = icmp eq ptr %11, null
  br i1 %12, label %13, label %19

13:                                               ; preds = %3
  %14 = call zeroext i1 @errstart_cold(i32 noundef 21, ptr noundef nonnull @.str.2) #13
  call void @llvm.assume(i1 %14)
  %15 = load ptr, ptr %1, align 8
  %16 = load i32, ptr @SPI_result, align 4
  %17 = call ptr @SPI_result_code_string(i32 noundef %16) #12
  %18 = call i32 (ptr, ...) @errmsg_internal(ptr noundef nonnull @.str.31, ptr noundef %15, ptr noundef %17) #12
  call void @errfinish(ptr noundef nonnull @.str.4, i32 noundef 4204, ptr noundef nonnull @__func__.exec_prepare_plan) #12
  unreachable

19:                                               ; preds = %3
  %20 = call i32 @SPI_keepplan(ptr noundef nonnull %11) #12
  %21 = getelementptr inbounds nuw i8, ptr %1, i64 40
  store ptr %11, ptr %21, align 8
  %22 = getelementptr inbounds nuw i8, ptr %1, i64 56
  store ptr null, ptr %22, align 8
  %23 = getelementptr inbounds nuw i8, ptr %1, i64 76
  store i32 0, ptr %23, align 4
  %24 = getelementptr inbounds nuw i8, ptr %1, i64 80
  store ptr null, ptr %24, align 8
  %25 = call fastcc zeroext i1 @exec_is_simple_query(ptr nonnull %11)
  br i1 %25, label %26, label %exec_simple_check_plan.exit

26:                                               ; preds = %19
  %27 = load ptr, ptr %21, align 8
  %28 = call ptr @SPI_plan_get_plan_sources(ptr noundef %27) #12
  %29 = getelementptr i8, ptr %28, i64 16
  %.val.i = load ptr, ptr %29, align 8
  %30 = load ptr, ptr %.val.i, align 8
  %31 = getelementptr inbounds nuw i8, ptr %0, i64 200
  %32 = load ptr, ptr %31, align 8
  %33 = getelementptr inbounds nuw i8, ptr %32, i64 40
  %34 = load ptr, ptr %33, align 8
  %35 = load ptr, ptr @CurrentMemoryContext, align 8
  store ptr %34, ptr @CurrentMemoryContext, align 8
  %36 = load ptr, ptr %21, align 8
  %37 = call ptr @SPI_plan_get_cached_plan(ptr noundef %36) #12
  store ptr %35, ptr @CurrentMemoryContext, align 8
  %38 = getelementptr inbounds nuw i8, ptr %0, i64 144
  %39 = load ptr, ptr %38, align 8
  %40 = call zeroext i1 @CachedPlanAllowsSimpleValidityCheck(ptr noundef %30, ptr noundef %37, ptr noundef %39) #12
  br i1 %40, label %41, label %50

41:                                               ; preds = %26
  %42 = getelementptr inbounds nuw i8, ptr %1, i64 88
  store ptr %30, ptr %42, align 8
  %43 = getelementptr inbounds nuw i8, ptr %1, i64 96
  store ptr %37, ptr %43, align 8
  %44 = load ptr, ptr @MyProc, align 8
  %45 = getelementptr inbounds nuw i8, ptr %44, i64 72
  %46 = load i32, ptr %45, align 4
  %47 = getelementptr inbounds nuw i8, ptr %1, i64 104
  store i32 %46, ptr %47, align 8
  %48 = getelementptr i8, ptr %37, i64 8
  %.val21.i = load ptr, ptr %48, align 8
  %49 = getelementptr i8, ptr %.val21.i, i64 16
  %.val21.val.i = load ptr, ptr %49, align 8
  %.val21.val.val.i = load ptr, ptr %.val21.val.i, align 8
  call fastcc void @exec_save_simple_expr(ptr noundef nonnull %1, ptr %.val21.val.val.i)
  br label %50

50:                                               ; preds = %41, %26
  %51 = load ptr, ptr @CurrentResourceOwner, align 8
  call void @ReleaseCachedPlan(ptr noundef %37, ptr noundef %51) #12
  br label %exec_simple_check_plan.exit

exec_simple_check_plan.exit:                      ; preds = %19, %50
  call void @llvm.lifetime.end.p0(i64 24, ptr nonnull %4) #12
  ret void
}